target datalayout = "e-m:e-p270:32:32-p271:32:32-p272:64:64-i64:64-i128:128-f80:128-n8:16:32:64-S128"
target triple = "x86_64-pc-linux-gnu"

%struct.DecodedCert = type { ptr, i32, i32, i32, i32, i32, i32, i32, i32, i32, i32, ptr, ptr, ptr, ptr, ptr, [20 x i8], [20 x i8], ptr, ptr, i32, i8, [256 x i8], [256 x i8], i32, ptr, i32, i32, ptr, [32 x i8], i32, ptr, i32, i32, ptr, i32, ptr, i32, ptr, i32, [20 x i8], i32, [20 x i8], i32, i8, i8, i8, i16, i8, i32, ptr, i32, ptr, i32, ptr, i32, ptr, i32, i8, ptr, %struct.SignatureCtx, i32, i32, i32 }
%struct.SignatureCtx = type { ptr, ptr, ptr, ptr, i32, %union.anon.4, i32, i32, i32, i32, i32, i32, i32, i32 }
%union.anon.4 = type { ptr }

; Function Attrs: nounwind uwtable
define i32 @wc_CheckPrivateKeyCert(ptr noundef %0, i32 noundef %1, ptr noundef %2, i32 noundef %3, ptr noundef %4) #0 {
  %6 = alloca i32, align 4
  %7 = alloca ptr, align 8
  %8 = alloca i32, align 4
  %9 = alloca ptr, align 8
  %10 = alloca i32, align 4
  %11 = alloca ptr, align 8
  %12 = alloca i32, align 4
  %13 = alloca i32, align 4
  store ptr %0, ptr %7, align 8, !tbaa !7
  store i32 %1, ptr %8, align 4, !tbaa !3
  store ptr %2, ptr %9, align 8, !tbaa !80
  store i32 %3, ptr %10, align 4, !tbaa !3
  store ptr %4, ptr %11, align 8, !tbaa !64
  call void @llvm.lifetime.start.p0(i64 4, ptr %12) #9
  store i32 0, ptr %12, align 4, !tbaa !3
  %14 = load ptr, ptr %7, align 8, !tbaa !7
  %15 = icmp eq ptr %14, null
  br i1 %15, label %19, label %16

16:                                               ; preds = %5
  %17 = load ptr, ptr %9, align 8, !tbaa !80
  %18 = icmp eq ptr %17, null
  br i1 %18, label %19, label %20

19:                                               ; preds = %16, %5
  store i32 -173, ptr %6, align 4
  store i32 1, ptr %13, align 4
  br label %35

20:                                               ; preds = %16
  %21 = load ptr, ptr %7, align 8, !tbaa !7
  %22 = load i32, ptr %8, align 4, !tbaa !3
  %23 = load ptr, ptr %9, align 8, !tbaa !80
  %24 = getelementptr inbounds nuw %struct.DecodedCert, ptr %23, i32 0, i32 0
  %25 = load ptr, ptr %24, align 8, !tbaa !82
  %26 = load ptr, ptr %9, align 8, !tbaa !80
  %27 = getelementptr inbounds nuw %struct.DecodedCert, ptr %26, i32 0, i32 1
  %28 = load i32, ptr %27, align 8, !tbaa !88
  %29 = load ptr, ptr %9, align 8, !tbaa !80
  %30 = getelementptr inbounds nuw %struct.DecodedCert, ptr %29, i32 0, i32 7
  %31 = load i32, ptr %30, align 8, !tbaa !89
  %32 = load ptr, ptr %11, align 8, !tbaa !64
  %33 = call i32 @wc_CheckPrivateKey(ptr noundef %21, i32 noundef %22, ptr noundef %25, i32 noundef %28, i32 noundef %31, ptr noundef %32)
  store i32 %33, ptr %12, align 4, !tbaa !3
  %34 = load i32, ptr %12, align 4, !tbaa !3
  store i32 %34, ptr %6, align 4
  store i32 1, ptr %13, align 4
  br label %35

35:                                               ; preds = %20, %19
  call void @llvm.lifetime.end.p0(i64 4, ptr %12) #9
  %36 = load i32, ptr %6, align 4
  ret i32 %36
}