; Function Attrs: nounwind uwtable
define i32 @wc_CheckPrivateKeyCert(ptr noundef %0, i32 noundef %1, ptr noundef readonly captures(address_is_null) %2, i32 noundef %3, ptr noundef %4) local_unnamed_addr #2 {
  %6 = icmp eq ptr %0, null
  %7 = icmp eq ptr %2, null
  %or.cond = or i1 %6, %7
  br i1 %or.cond, label %15, label %8

8:                                                ; preds = %5
  %9 = load ptr, ptr %2, align 8, !tbaa !62
  %10 = getelementptr inbounds nuw i8, ptr %2, i64 8
  %11 = load i32, ptr %10, align 8, !tbaa !68
  %12 = getelementptr inbounds nuw i8, ptr %2, i64 32
  %13 = load i32, ptr %12, align 8, !tbaa !69
  %14 = tail call i32 @wc_CheckPrivateKey(ptr noundef nonnull %0, i32 noundef %1, ptr noundef %9, i32 noundef %11, i32 noundef %13, ptr noundef %4)
  br label %15

15:                                               ; preds = %5, %8
  %.0 = phi i32 [ %14, %8 ], [ -173, %5 ]
  ret i32 %.0
}